; Function Attrs: nounwind uwtable
define internal fastcc void @_resv_rep(i32 noundef range(i32 1, 2147483647) %0, ptr noundef %1) unnamed_addr #8 {
  %3 = load ptr, ptr %1, align 8
  %4 = tail call i32 @xstrncasecmp(ptr noundef %3, ptr noundef nonnull @.str.67, i64 noundef 1) #17
  %5 = icmp eq i32 %4, 0
  br i1 %5, label %6, label %.critedge

6:                                                ; preds = %2
  %7 = add nsw i32 %0, -1
  %8 = getelementptr inbounds nuw i8, ptr %1, i64 8
  %9 = tail call i32 @resv_utilization(i32 noundef %7, ptr noundef nonnull %8) #17
  %10 = icmp eq i32 %9, 0
  br i1 %10, label %19, label %18

.critedge:                                        ; preds = %2
  store i32 1, ptr @exit_code, align 4
  %11 = load ptr, ptr @stderr, align 8
  %12 = load ptr, ptr %1, align 8
  %13 = tail call i32 (ptr, ptr, ...) @fprintf(ptr noundef %11, ptr noundef nonnull @.str.70, ptr noundef %12) #22
  %14 = load ptr, ptr @stderr, align 8
  %15 = tail call i64 @fwrite(ptr nonnull @.str.79, i64 31, i64 1, ptr %14) #18
  %16 = load ptr, ptr @stderr, align 8
  %17 = tail call i64 @fwrite(ptr nonnull @.str.80, i64 14, i64 1, ptr %16) #18
  br label %19

18:                                               ; preds = %6
  store i32 1, ptr @exit_code, align 4
  br label %19

19:                                               ; preds = %.critedge, %18, %6
  ret void
}